; Function Attrs: nofree norecurse nosync nounwind memory(argmem: write) uwtable
define hidden range(i32 -128, 128) i32 @_PyUnicode_ToFoldedFull(i32 noundef %0, ptr noundef writeonly captures(none) %1) local_unnamed_addr #1 {
  %3 = icmp ugt i32 %0, 1114111
  br i1 %3, label %gettyperecord.exit, label %4

4:                                                ; preds = %2
  %5 = lshr i32 %0, 6
  %6 = zext nneg i32 %5 to i64
  %7 = getelementptr [17408 x i16], ptr @index1, i64 0, i64 %6
  %8 = load i16, ptr %7, align 2, !tbaa !4
  %9 = zext i16 %8 to i32
  %10 = shl nuw nsw i32 %9, 6
  %11 = and i32 %0, 63
  %12 = or disjoint i32 %10, %11
  %13 = zext nneg i32 %12 to i64
  %14 = getelementptr [29312 x i16], ptr @index2, i64 0, i64 %13
  %15 = load i16, ptr %14, align 2, !tbaa !4
  %16 = zext i16 %15 to i64
  br label %gettyperecord.exit

gettyperecord.exit:                               ; preds = %2, %4
  %.0.i = phi i64 [ %16, %4 ], [ 0, %2 ]
  %17 = getelementptr [509 x %struct._PyUnicode_TypeRecord], ptr @_PyUnicode_TypeRecords, i64 0, i64 %.0.i
  %18 = getelementptr inbounds nuw i8, ptr %17, i64 14
  %19 = load i16, ptr %18, align 2, !tbaa !8
  %20 = and i16 %19, 16384
  %.not = icmp eq i16 %20, 0
  br i1 %.not, label %36, label %21

21:                                               ; preds = %gettyperecord.exit
  %22 = getelementptr inbounds nuw i8, ptr %17, i64 4
  %23 = load i32, ptr %22, align 4, !tbaa !16
  %24 = lshr i32 %23, 20
  %25 = and i32 %24, 7
  %.not18 = icmp eq i32 %25, 0
  br i1 %.not18, label %36, label %26

26:                                               ; preds = %21
  %27 = and i32 %23, 65535
  %28 = ashr i32 %23, 24
  %29 = add nsw i32 %27, %28
  %30 = sext i32 %29 to i64
  %wide.trip.count = zext nneg i32 %25 to i64
  br label %31

31:                                               ; preds = %26, %31
  %indvars.iv = phi i64 [ 0, %26 ], [ %indvars.iv.next, %31 ]
  %32 = add nsw i64 %indvars.iv, %30
  %33 = getelementptr [1236 x i32], ptr @_PyUnicode_ExtendedCase, i64 0, i64 %32
  %34 = load i32, ptr %33, align 4, !tbaa !12
  %35 = getelementptr i32, ptr %1, i64 %indvars.iv
  store i32 %34, ptr %35, align 4, !tbaa !12
  %indvars.iv.next = add nuw nsw i64 %indvars.iv, 1
  %exitcond.not = icmp eq i64 %indvars.iv.next, %wide.trip.count
  br i1 %exitcond.not, label %_PyUnicode_ToLowerFull.exit, label %31, !llvm.loop !21

36:                                               ; preds = %21, %gettyperecord.exit
  br i1 %3, label %gettyperecord.exit.i, label %37

37:                                               ; preds = %36
  %38 = lshr i32 %0, 6
  %39 = zext nneg i32 %38 to i64
  %40 = getelementptr [17408 x i16], ptr @index1, i64 0, i64 %39
  %41 = load i16, ptr %40, align 2, !tbaa !4
  %42 = zext i16 %41 to i32
  %43 = shl nuw nsw i32 %42, 6
  %44 = and i32 %0, 63
  %45 = or disjoint i32 %43, %44
  %46 = zext nneg i32 %45 to i64
  %47 = getelementptr [29312 x i16], ptr @index2, i64 0, i64 %46
  %48 = load i16, ptr %47, align 2, !tbaa !4
  %49 = zext i16 %48 to i64
  br label %gettyperecord.exit.i

gettyperecord.exit.i:                             ; preds = %37, %36
  %.0.i.i = phi i64 [ %49, %37 ], [ 0, %36 ]
  %50 = getelementptr [509 x %struct._PyUnicode_TypeRecord], ptr @_PyUnicode_TypeRecords, i64 0, i64 %.0.i.i
  %51 = getelementptr inbounds nuw i8, ptr %50, i64 14
  %52 = load i16, ptr %51, align 2, !tbaa !8
  %53 = and i16 %52, 16384
  %.not.i = icmp eq i16 %53, 0
  %54 = getelementptr inbounds nuw i8, ptr %50, i64 4
  %55 = load i32, ptr %54, align 4, !tbaa !16
  br i1 %.not.i, label %65, label %56

56:                                               ; preds = %gettyperecord.exit.i
  %57 = ashr i32 %55, 24
  %58 = icmp sgt i32 %57, 0
  br i1 %58, label %.lr.ph.preheader.i, label %_PyUnicode_ToLowerFull.exit

.lr.ph.preheader.i:                               ; preds = %56
  %59 = and i32 %55, 65535
  %60 = zext nneg i32 %59 to i64
  %wide.trip.count.i = zext nneg i32 %57 to i64
  br label %.lr.ph.i

.lr.ph.i:                                         ; preds = %.lr.ph.i, %.lr.ph.preheader.i
  %indvars.iv.i = phi i64 [ 0, %.lr.ph.preheader.i ], [ %indvars.iv.next.i, %.lr.ph.i ]
  %61 = add nuw nsw i64 %indvars.iv.i, %60
  %62 = getelementptr [1236 x i32], ptr @_PyUnicode_ExtendedCase, i64 0, i64 %61
  %63 = load i32, ptr %62, align 4, !tbaa !12
  %64 = getelementptr i32, ptr %1, i64 %indvars.iv.i
  store i32 %63, ptr %64, align 4, !tbaa !12
  %indvars.iv.next.i = add nuw nsw i64 %indvars.iv.i, 1
  %exitcond.not.i = icmp eq i64 %indvars.iv.next.i, %wide.trip.count.i
  br i1 %exitcond.not.i, label %_PyUnicode_ToLowerFull.exit, label %.lr.ph.i, !llvm.loop !17

65:                                               ; preds = %gettyperecord.exit.i
  %66 = add i32 %55, %0
  store i32 %66, ptr %1, align 4, !tbaa !12
  br label %_PyUnicode_ToLowerFull.exit

_PyUnicode_ToLowerFull.exit:                      ; preds = %31, %.lr.ph.i, %65, %56
  %.016 = phi i32 [ 1, %65 ], [ %57, %56 ], [ %57, %.lr.ph.i ], [ %25, %31 ]
  ret i32 %.016
}